; Function Attrs: nounwind uwtable
define range(i32 0, 3) i32 @Cudd_bddApproxDisjDecomp(ptr noundef %0, ptr noundef %1, ptr noundef captures(none) %2) local_unnamed_addr #0 {
  %4 = ptrtoint ptr %1 to i64
  %5 = xor i64 %4, 1
  %6 = inttoptr i64 %5 to ptr
  %7 = tail call i32 @Cudd_bddApproxConjDecomp(ptr noundef %0, ptr noundef %6, ptr noundef %2)
  %.not = icmp eq i32 %7, 0
  br i1 %.not, label %._crit_edge, label %.lr.ph

.lr.ph:                                           ; preds = %3
  %8 = load ptr, ptr %2, align 8, !tbaa !25
  %wide.trip.count = zext nneg i32 %7 to i64
  br label %9

9:                                                ; preds = %.lr.ph, %9
  %indvars.iv = phi i64 [ 0, %.lr.ph ], [ %indvars.iv.next, %9 ]
  %10 = getelementptr inbounds nuw ptr, ptr %8, i64 %indvars.iv
  %11 = load ptr, ptr %10, align 8, !tbaa !27
  %12 = ptrtoint ptr %11 to i64
  %13 = xor i64 %12, 1
  %14 = inttoptr i64 %13 to ptr
  store ptr %14, ptr %10, align 8, !tbaa !27
  %indvars.iv.next = add nuw nsw i64 %indvars.iv, 1
  %exitcond.not = icmp eq i64 %indvars.iv.next, %wide.trip.count
  br i1 %exitcond.not, label %._crit_edge, label %9, !llvm.loop !28

._crit_edge:                                      ; preds = %9, %3
  ret i32 %7
}